target datalayout = "e-m:e-p270:32:32-p271:32:32-p272:64:64-i64:64-i128:128-f80:128-n8:16:32:64-S128"
target triple = "x86_64-pc-linux-gnu"

%struct.pmix_list_t = type { %struct.pmix_object_t, %struct.pmix_list_item_t, i64 }
%struct.pmix_object_t = type { %union.pthread_mutex_t, ptr, i32, %struct.pmix_tma }
%union.pthread_mutex_t = type { %struct.__pthread_mutex_s }
%struct.__pthread_mutex_s = type { i32, i32, i32, i32, i32, i16, i16, %struct.__pthread_internal_list }
%struct.__pthread_internal_list = type { ptr, ptr }
%struct.pmix_tma = type { ptr, ptr, ptr, ptr, ptr, ptr, ptr, ptr }
%struct.pmix_list_item_t = type { %struct.pmix_object_t, ptr, ptr, i32 }
%struct.pmix_mca_base_framework_t = type { ptr, ptr, ptr, ptr, ptr, ptr, i32, i32, ptr, ptr, i32, i32, %struct.pmix_list_t, %struct.pmix_list_t }
%struct.pmix_output_desc_t = type { i8, i8, i32, i8, i32, ptr, ptr, i32, ptr, i32, i8, i8, i8, i8, ptr, i32, i32 }
%struct.prte_process_info_t = type { %struct.pmix_proc, %struct.pmix_proc, ptr, %struct.pmix_proc, i32, i32, i32, ptr, ptr, i32, i8, ptr, i16, ptr, ptr, i8, ptr, i8 }
%struct.pmix_proc = type { [256 x i8], i32 }
%struct.pmix_class_t = type { ptr, ptr, ptr, ptr, i32, i32, ptr, ptr, i64 }
%struct.prte_state_base_module_1_0_0_t = type { ptr, ptr, ptr, ptr, ptr, ptr, ptr, ptr, ptr, ptr }
%struct.timeval = type { i64, i64 }
%struct.prte_job_t = type { %struct.pmix_list_item_t, i32, ptr, ptr, [256 x i8], ptr, i32, i32, ptr, ptr, i32, i32, i32, i32, ptr, ptr, ptr, i32, i32, i32, i32, i32, i32, i32, %struct.pmix_proc, i32, i16, %struct.pmix_list_t, %struct.pmix_data_buffer, %struct.pmix_list_t, [256 x i8], i32, ptr, %struct.pmix_cli_result_t }
%struct.pmix_data_buffer = type { ptr, ptr, ptr, i64, i64 }
%struct.pmix_cli_result_t = type { %struct.pmix_object_t, %struct.pmix_list_t, ptr }
%struct.prte_state_caddy_t = type { %struct.pmix_object_t, %struct.event, ptr, i32, %struct.pmix_proc, i32 }
%struct.event = type { %struct.event_callback, %union.anon.0, i32, ptr, %union.anon.2, i16, i16, %struct.timeval }
%struct.event_callback = type { %struct.anon, i16, i8, i8, %union.anon, ptr }
%struct.anon = type { ptr, ptr }
%union.anon = type { ptr }
%union.anon.0 = type { %struct.anon.1 }
%struct.anon.1 = type { ptr, ptr }
%union.anon.2 = type { %struct.anon.3 }
%struct.anon.3 = type { %struct.anon.4, %struct.timeval }
%struct.anon.4 = type { ptr, ptr }

@prte_state_base_framework = external global %struct.pmix_mca_base_framework_t, align 8
@pmix_output_info = external global [0 x %struct.pmix_output_desc_t], align 8
@prte_process_info = external global %struct.prte_process_info_t, align 8
@.str.1 = private unnamed_addr constant [5 x i8] c"NULL\00", align 1
@.str.14 = private unnamed_addr constant [42 x i8] c"%s [%f] ACTIVATE JOB %s STATE %s AT %s:%d\00", align 1
@.str.15 = private unnamed_addr constant [22 x i8] c"base/state_base_fns.c\00", align 1
@prte_state = external global %struct.prte_state_base_module_1_0_0_t, align 8
@.str.16 = private unnamed_addr constant [32 x i8] c"%s state:base:cleanup on job %s\00", align 1
@.str.59 = private unnamed_addr constant [21 x i8] c"pthread_mutex_lock()\00", align 1

; Function Attrs: inlinehint nounwind uwtable
define internal void @pmix_tma_free(ptr noundef %0, ptr noundef %1) #2 {
  %3 = alloca ptr, align 8
  %4 = alloca ptr, align 8
  store ptr %0, ptr %3, align 8, !tbaa !52
  store ptr %1, ptr %4, align 8, !tbaa !3
  %5 = load ptr, ptr %3, align 8, !tbaa !52
  %6 = icmp ne ptr null, %5
  br i1 %6, label %7, label %13

7:                                                ; preds = %2
  %8 = load ptr, ptr %3, align 8, !tbaa !52
  %9 = getelementptr inbounds nuw %struct.pmix_tma, ptr %8, i32 0, i32 5
  %10 = load ptr, ptr %9, align 8, !tbaa !76
  %11 = load ptr, ptr %3, align 8, !tbaa !52
  %12 = load ptr, ptr %4, align 8, !tbaa !3
  call void %10(ptr noundef %11, ptr noundef %12)
  br label %15

13:                                               ; preds = %2
  %14 = load ptr, ptr %4, align 8, !tbaa !3
  call void @free(ptr noundef %14) #13
  br label %15

15:                                               ; preds = %13, %7
  ret void
}

; Function Attrs: inlinehint nounwind uwtable
define internal void @pmix_obj_run_destructors(ptr noundef %0) #2 {
  %2 = alloca ptr, align 8
  %3 = alloca ptr, align 8
  store ptr %0, ptr %2, align 8, !tbaa !56
  call void @llvm.lifetime.start.p0(i64 8, ptr %3) #13
  %4 = load ptr, ptr %2, align 8, !tbaa !56
  %5 = getelementptr inbounds nuw %struct.pmix_object_t, ptr %4, i32 0, i32 1
  %6 = load ptr, ptr %5, align 8, !tbaa !59
  %7 = getelementptr inbounds nuw %struct.pmix_class_t, ptr %6, i32 0, i32 7
  %8 = load ptr, ptr %7, align 8, !tbaa !74
  store ptr %8, ptr %3, align 8, !tbaa !3
  br label %9

9:                                                ; preds = %13, %1
  %10 = load ptr, ptr %3, align 8, !tbaa !3
  %11 = load ptr, ptr %10, align 8, !tbaa !3
  %12 = icmp ne ptr null, %11
  br i1 %12, label %13, label %19

13:                                               ; preds = %9
  %14 = load ptr, ptr %3, align 8, !tbaa !3
  %15 = load ptr, ptr %14, align 8, !tbaa !3
  %16 = load ptr, ptr %2, align 8, !tbaa !56
  call void %15(ptr noundef %16)
  %17 = load ptr, ptr %3, align 8, !tbaa !3
  %18 = getelementptr inbounds nuw ptr, ptr %17, i32 1
  store ptr %18, ptr %3, align 8, !tbaa !3
  br label %9, !llvm.loop !75

19:                                               ; preds = %9
  call void @llvm.lifetime.end.p0(i64 8, ptr %3) #13
  ret void
}

; Function Attrs: alwaysinline nounwind uwtable
define internal i32 @pmix_obj_update(ptr noundef %0, i32 noundef %1) #5 {
  %3 = alloca ptr, align 8
  %4 = alloca i32, align 4
  %5 = alloca i32, align 4
  store ptr %0, ptr %3, align 8, !tbaa !56
  store i32 %1, ptr %4, align 4, !tbaa !7
  call void @llvm.lifetime.start.p0(i64 4, ptr %5) #13
  %6 = load ptr, ptr %3, align 8, !tbaa !56
  %7 = getelementptr inbounds nuw %struct.pmix_object_t, ptr %6, i32 0, i32 0
  %8 = call i32 @pthread_mutex_lock(ptr noundef %7) #13
  store i32 %8, ptr %5, align 4, !tbaa !7
  %9 = load i32, ptr %5, align 4, !tbaa !7
  %10 = icmp eq i32 %9, 35
  br i1 %10, label %11, label %14

11:                                               ; preds = %2
  %12 = load i32, ptr %5, align 4, !tbaa !7
  %13 = call ptr @__errno_location() #14
  store i32 %12, ptr %13, align 4, !tbaa !7
  call void @perror(ptr noundef @.str.59)
  call void @abort() #15
  unreachable

14:                                               ; preds = %2
  %15 = load i32, ptr %4, align 4, !tbaa !7
  %16 = load ptr, ptr %3, align 8, !tbaa !56
  %17 = getelementptr inbounds nuw %struct.pmix_object_t, ptr %16, i32 0, i32 2
  %18 = load i32, ptr %17, align 8, !tbaa !60
  %19 = add nsw i32 %18, %15
  store i32 %19, ptr %17, align 8, !tbaa !60
  store i32 %19, ptr %5, align 4, !tbaa !7
  %20 = load ptr, ptr %3, align 8, !tbaa !56
  %21 = getelementptr inbounds nuw %struct.pmix_object_t, ptr %20, i32 0, i32 0
  %22 = call i32 @pthread_mutex_unlock(ptr noundef %21) #13
  %23 = load i32, ptr %5, align 4, !tbaa !7
  call void @llvm.lifetime.end.p0(i64 4, ptr %5) #13
  ret i32 %23
}

; Function Attrs: inlinehint nounwind uwtable
define internal void @pmix_atomic_rmb() #2 {
  fence acquire
  ret void
}

; Function Attrs: nounwind uwtable
define void @prte_state_base_cleanup_job(i32 noundef %0, i16 noundef signext %1, ptr noundef %2) #0 {
  %4 = alloca i32, align 4
  %5 = alloca i16, align 2
  %6 = alloca ptr, align 8
  %7 = alloca ptr, align 8
  %8 = alloca ptr, align 8
  %9 = alloca ptr, align 8
  %10 = alloca double, align 8
  %11 = alloca %struct.timeval, align 8
  %12 = alloca ptr, align 8
  store i32 %0, ptr %4, align 4, !tbaa !7
  store i16 %1, ptr %5, align 2, !tbaa !89
  store ptr %2, ptr %6, align 8, !tbaa !3
  call void @llvm.lifetime.start.p0(i64 8, ptr %7) #13
  %13 = load ptr, ptr %6, align 8, !tbaa !3
  store ptr %13, ptr %7, align 8, !tbaa !3
  call void @llvm.lifetime.start.p0(i64 8, ptr %8) #13
  call void @pmix_atomic_rmb()
  %14 = load ptr, ptr %7, align 8, !tbaa !3
  %15 = getelementptr inbounds nuw %struct.prte_state_caddy_t, ptr %14, i32 0, i32 2
  %16 = load ptr, ptr %15, align 8, !tbaa !33
  store ptr %16, ptr %8, align 8, !tbaa !3
  %17 = load i32, ptr getelementptr inbounds nuw (%struct.pmix_mca_base_framework_t, ptr @prte_state_base_framework, i32 0, i32 11), align 4, !tbaa !28
  %18 = icmp sge i32 %17, 0
  br i1 %18, label %19, label %42

19:                                               ; preds = %3
  %20 = load i32, ptr getelementptr inbounds nuw (%struct.pmix_mca_base_framework_t, ptr @prte_state_base_framework, i32 0, i32 11), align 4, !tbaa !28
  %21 = icmp slt i32 %20, 64
  br i1 %21, label %22, label %42

22:                                               ; preds = %19
  %23 = load i32, ptr getelementptr inbounds nuw (%struct.pmix_mca_base_framework_t, ptr @prte_state_base_framework, i32 0, i32 11), align 4, !tbaa !28
  %24 = sext i32 %23 to i64
  %25 = getelementptr inbounds [0 x %struct.pmix_output_desc_t], ptr @pmix_output_info, i64 0, i64 %24
  %26 = getelementptr inbounds nuw %struct.pmix_output_desc_t, ptr %25, i32 0, i32 2
  %27 = load i32, ptr %26, align 4, !tbaa !29
  %28 = icmp sge i32 %27, 2
  br i1 %28, label %29, label %42

29:                                               ; preds = %22
  %30 = load i32, ptr getelementptr inbounds nuw (%struct.pmix_mca_base_framework_t, ptr @prte_state_base_framework, i32 0, i32 11), align 4, !tbaa !28
  %31 = call ptr @prte_util_print_name_args(ptr noundef @prte_process_info)
  %32 = load ptr, ptr %8, align 8, !tbaa !3
  %33 = icmp eq ptr null, %32
  br i1 %33, label %34, label %35

34:                                               ; preds = %29
  br label %40

35:                                               ; preds = %29
  %36 = load ptr, ptr %8, align 8, !tbaa !3
  %37 = getelementptr inbounds nuw %struct.prte_job_t, ptr %36, i32 0, i32 4
  %38 = getelementptr inbounds [256 x i8], ptr %37, i64 0, i64 0
  %39 = call ptr @prte_util_print_jobids(ptr noundef %38)
  br label %40

40:                                               ; preds = %35, %34
  %41 = phi ptr [ @.str.1, %34 ], [ %39, %35 ]
  call void (i32, ptr, ...) @pmix_output(i32 noundef %30, ptr noundef @.str.16, ptr noundef %31, ptr noundef %41)
  br label %42

42:                                               ; preds = %40, %22, %19, %3
  %43 = load ptr, ptr %8, align 8, !tbaa !3
  %44 = getelementptr inbounds nuw %struct.prte_job_t, ptr %43, i32 0, i32 17
  store i32 35, ptr %44, align 8, !tbaa !105
  br label %45

45:                                               ; preds = %42
  call void @llvm.lifetime.start.p0(i64 8, ptr %9) #13
  %46 = load ptr, ptr %8, align 8, !tbaa !3
  store ptr %46, ptr %9, align 8, !tbaa !3
  %47 = load i32, ptr getelementptr inbounds nuw (%struct.pmix_mca_base_framework_t, ptr @prte_state_base_framework, i32 0, i32 10), align 8, !tbaa !17
  %48 = icmp sgt i32 %47, 0
  br i1 %48, label %49, label %91

49:                                               ; preds = %45
  call void @llvm.lifetime.start.p0(i64 8, ptr %10) #13
  store double 0.000000e+00, ptr %10, align 8, !tbaa !23
  br label %50

50:                                               ; preds = %49
  call void @llvm.lifetime.start.p0(i64 16, ptr %11) #13
  %51 = call i32 @gettimeofday(ptr noundef %11, ptr noundef null) #13
  %52 = getelementptr inbounds nuw %struct.timeval, ptr %11, i32 0, i32 0
  %53 = load i64, ptr %52, align 8, !tbaa !25
  %54 = sitofp i64 %53 to double
  store double %54, ptr %10, align 8, !tbaa !23
  %55 = getelementptr inbounds nuw %struct.timeval, ptr %11, i32 0, i32 1
  %56 = load i64, ptr %55, align 8, !tbaa !27
  %57 = sitofp i64 %56 to double
  %58 = fdiv double %57, 1.000000e+06
  %59 = load double, ptr %10, align 8, !tbaa !23
  %60 = fadd double %59, %58
  store double %60, ptr %10, align 8, !tbaa !23
  call void @llvm.lifetime.end.p0(i64 16, ptr %11) #13
  br label %61

61:                                               ; preds = %50
  br label %62

62:                                               ; preds = %61
  %63 = load i32, ptr getelementptr inbounds nuw (%struct.pmix_mca_base_framework_t, ptr @prte_state_base_framework, i32 0, i32 11), align 4, !tbaa !28
  %64 = icmp sge i32 %63, 0
  br i1 %64, label %65, label %90

65:                                               ; preds = %62
  %66 = load i32, ptr getelementptr inbounds nuw (%struct.pmix_mca_base_framework_t, ptr @prte_state_base_framework, i32 0, i32 11), align 4, !tbaa !28
  %67 = icmp slt i32 %66, 64
  br i1 %67, label %68, label %90

68:                                               ; preds = %65
  %69 = load i32, ptr getelementptr inbounds nuw (%struct.pmix_mca_base_framework_t, ptr @prte_state_base_framework, i32 0, i32 11), align 4, !tbaa !28
  %70 = sext i32 %69 to i64
  %71 = getelementptr inbounds [0 x %struct.pmix_output_desc_t], ptr @pmix_output_info, i64 0, i64 %70
  %72 = getelementptr inbounds nuw %struct.pmix_output_desc_t, ptr %71, i32 0, i32 2
  %73 = load i32, ptr %72, align 4, !tbaa !29
  %74 = icmp sge i32 %73, 1
  br i1 %74, label %75, label %90

75:                                               ; preds = %68
  %76 = load i32, ptr getelementptr inbounds nuw (%struct.pmix_mca_base_framework_t, ptr @prte_state_base_framework, i32 0, i32 11), align 4, !tbaa !28
  %77 = call ptr @prte_util_print_name_args(ptr noundef @prte_process_info)
  %78 = load double, ptr %10, align 8, !tbaa !23
  %79 = load ptr, ptr %9, align 8, !tbaa !3
  %80 = icmp eq ptr null, %79
  br i1 %80, label %81, label %82

81:                                               ; preds = %75
  br label %87

82:                                               ; preds = %75
  %83 = load ptr, ptr %9, align 8, !tbaa !3
  %84 = getelementptr inbounds nuw %struct.prte_job_t, ptr %83, i32 0, i32 4
  %85 = getelementptr inbounds [256 x i8], ptr %84, i64 0, i64 0
  %86 = call ptr @prte_util_print_jobids(ptr noundef %85)
  br label %87

87:                                               ; preds = %82, %81
  %88 = phi ptr [ @.str.1, %81 ], [ %86, %82 ]
  %89 = call ptr @prte_job_state_to_str(i32 noundef 31)
  call void (i32, ptr, ...) @pmix_output(i32 noundef %76, ptr noundef @.str.14, ptr noundef %77, double noundef %78, ptr noundef %88, ptr noundef %89, ptr noundef @.str.15, i32 noundef 351)
  br label %90

90:                                               ; preds = %87, %68, %65, %62
  call void @llvm.lifetime.end.p0(i64 8, ptr %10) #13
  br label %91

91:                                               ; preds = %90, %45
  %92 = load ptr, ptr getelementptr inbounds nuw (%struct.prte_state_base_module_1_0_0_t, ptr @prte_state, i32 0, i32 2), align 8, !tbaa !103
  %93 = load ptr, ptr %9, align 8, !tbaa !3
  call void %92(ptr noundef %93, i32 noundef 31)
  call void @llvm.lifetime.end.p0(i64 8, ptr %9) #13
  br label %94

94:                                               ; preds = %91
  br label %95

95:                                               ; preds = %94
  br label %96

96:                                               ; preds = %95
  call void @llvm.lifetime.start.p0(i64 8, ptr %12) #13
  %97 = load ptr, ptr %7, align 8, !tbaa !3
  store ptr %97, ptr %12, align 8, !tbaa !56
  %98 = load ptr, ptr %12, align 8, !tbaa !56
  %99 = call i32 @pmix_obj_update(ptr noundef %98, i32 noundef -1)
  %100 = icmp eq i32 0, %99
  br i1 %100, label %101, label %115

101:                                              ; preds = %96
  %102 = load ptr, ptr %12, align 8, !tbaa !56
  call void @pmix_obj_run_destructors(ptr noundef %102)
  %103 = load ptr, ptr %12, align 8, !tbaa !56
  %104 = getelementptr inbounds nuw %struct.pmix_object_t, ptr %103, i32 0, i32 3
  %105 = getelementptr inbounds nuw %struct.pmix_tma, ptr %104, i32 0, i32 5
  %106 = load ptr, ptr %105, align 8, !tbaa !65
  %107 = icmp ne ptr null, %106
  br i1 %107, label %108, label %112

108:                                              ; preds = %101
  %109 = load ptr, ptr %12, align 8, !tbaa !56
  %110 = getelementptr inbounds nuw %struct.pmix_object_t, ptr %109, i32 0, i32 3
  %111 = load ptr, ptr %7, align 8, !tbaa !3
  call void @pmix_tma_free(ptr noundef %110, ptr noundef %111)
  br label %114

112:                                              ; preds = %101
  %113 = load ptr, ptr %7, align 8, !tbaa !3
  call void @free(ptr noundef %113) #13
  br label %114

114:                                              ; preds = %112, %108
  store ptr null, ptr %7, align 8, !tbaa !3
  br label %115

115:                                              ; preds = %114, %96
  call void @llvm.lifetime.end.p0(i64 8, ptr %12) #13
  br label %116

116:                                              ; preds = %115
  br label %117

117:                                              ; preds = %116
  call void @llvm.lifetime.end.p0(i64 8, ptr %8) #13
  call void @llvm.lifetime.end.p0(i64 8, ptr %7) #13
  ret void
}