; Function Attrs: nounwind uwtable
define void @prte_state_base_cleanup_job(i32 noundef %0, i16 noundef signext %1, ptr noundef %2) local_unnamed_addr #0 {
  %4 = alloca %struct.timeval, align 8
  fence acquire
  %5 = getelementptr inbounds nuw i8, ptr %2, i64 248
  %6 = load ptr, ptr %5, align 8, !tbaa !39
  %7 = load i32, ptr getelementptr inbounds nuw (i8, ptr @prte_state_base_framework, i64 76), align 4, !tbaa !24
  %or.cond = icmp ult i32 %7, 64
  br i1 %or.cond, label %8, label %21

8:                                                ; preds = %3
  %9 = zext nneg i32 %7 to i64
  %10 = getelementptr inbounds nuw [0 x %struct.pmix_output_desc_t], ptr @pmix_output_info, i64 0, i64 %9, i32 2
  %11 = load i32, ptr %10, align 4, !tbaa !25
  %12 = icmp sgt i32 %11, 1
  br i1 %12, label %13, label %21

13:                                               ; preds = %8
  %14 = tail call ptr @prte_util_print_name_args(ptr noundef nonnull @prte_process_info) #14
  %15 = icmp eq ptr %6, null
  br i1 %15, label %19, label %16

16:                                               ; preds = %13
  %17 = getelementptr inbounds nuw i8, ptr %6, i64 168
  %18 = tail call ptr @prte_util_print_jobids(ptr noundef nonnull %17) #14
  br label %19

19:                                               ; preds = %13, %16
  %20 = phi ptr [ %18, %16 ], [ @.str.1, %13 ]
  tail call void (i32, ptr, ...) @pmix_output(i32 noundef %7, ptr noundef nonnull @.str.16, ptr noundef %14, ptr noundef %20) #14
  br label %21

21:                                               ; preds = %19, %8, %3
  %22 = getelementptr inbounds nuw i8, ptr %6, i64 496
  store i32 35, ptr %22, align 8, !tbaa !81
  %23 = load i32, ptr getelementptr inbounds nuw (i8, ptr @prte_state_base_framework, i64 72), align 8, !tbaa !17
  %24 = icmp sgt i32 %23, 0
  br i1 %24, label %25, label %45

25:                                               ; preds = %21
  call void @llvm.lifetime.start.p0(i64 16, ptr nonnull %4) #14
  %26 = call i32 @gettimeofday(ptr noundef nonnull %4, ptr noundef null) #14
  %27 = load i64, ptr %4, align 8, !tbaa !21
  %28 = sitofp i64 %27 to double
  %29 = getelementptr inbounds nuw i8, ptr %4, i64 8
  %30 = load i64, ptr %29, align 8, !tbaa !23
  %31 = sitofp i64 %30 to double
  %32 = fdiv double %31, 1.000000e+06
  %33 = fadd double %32, %28
  call void @llvm.lifetime.end.p0(i64 16, ptr nonnull %4) #14
  %34 = load i32, ptr getelementptr inbounds nuw (i8, ptr @prte_state_base_framework, i64 76), align 4, !tbaa !24
  %or.cond3 = icmp ult i32 %34, 64
  br i1 %or.cond3, label %35, label %45

35:                                               ; preds = %25
  %36 = zext nneg i32 %34 to i64
  %37 = getelementptr inbounds nuw [0 x %struct.pmix_output_desc_t], ptr @pmix_output_info, i64 0, i64 %36, i32 2
  %38 = load i32, ptr %37, align 4, !tbaa !25
  %39 = icmp sgt i32 %38, 0
  br i1 %39, label %40, label %45

40:                                               ; preds = %35
  %41 = tail call ptr @prte_util_print_name_args(ptr noundef nonnull @prte_process_info) #14
  %42 = getelementptr inbounds nuw i8, ptr %6, i64 168
  %43 = tail call ptr @prte_util_print_jobids(ptr noundef nonnull %42) #14
  %44 = tail call ptr @prte_job_state_to_str(i32 noundef 31) #14
  tail call void (i32, ptr, ...) @pmix_output(i32 noundef %34, ptr noundef nonnull @.str.14, ptr noundef %41, double noundef %33, ptr noundef %43, ptr noundef %44, ptr noundef nonnull @.str.15, i32 noundef 351) #14
  br label %45

45:                                               ; preds = %25, %35, %40, %21
  %46 = load ptr, ptr getelementptr inbounds nuw (i8, ptr @prte_state, i64 16), align 8, !tbaa !79
  tail call void %46(ptr noundef nonnull %6, i32 noundef 31) #14
  %47 = tail call i32 @pthread_mutex_lock(ptr noundef nonnull %2) #14
  %48 = icmp eq i32 %47, 35
  br i1 %48, label %49, label %pmix_obj_update.exit

49:                                               ; preds = %45
  %50 = tail call ptr @__errno_location() #16
  store i32 35, ptr %50, align 4, !tbaa !31
  tail call void @perror(ptr noundef nonnull @.str.59) #17
  tail call void @abort() #18
  unreachable

pmix_obj_update.exit:                             ; preds = %45
  %51 = getelementptr inbounds nuw i8, ptr %2, i64 48
  %52 = load i32, ptr %51, align 8, !tbaa !34
  %53 = add nsw i32 %52, -1
  store i32 %53, ptr %51, align 8, !tbaa !34
  %54 = tail call i32 @pthread_mutex_unlock(ptr noundef nonnull %2) #14
  %55 = icmp eq i32 %53, 0
  br i1 %55, label %56, label %70

56:                                               ; preds = %pmix_obj_update.exit
  %57 = getelementptr inbounds nuw i8, ptr %2, i64 40
  %58 = load ptr, ptr %57, align 8, !tbaa !33
  %59 = getelementptr inbounds nuw i8, ptr %58, i64 48
  %60 = load ptr, ptr %59, align 8, !tbaa !57
  %61 = load ptr, ptr %60, align 8, !tbaa !36
  %.not6.i = icmp eq ptr %61, null
  br i1 %.not6.i, label %pmix_obj_run_destructors.exit, label %.lr.ph.i

.lr.ph.i:                                         ; preds = %56, %.lr.ph.i
  %62 = phi ptr [ %64, %.lr.ph.i ], [ %61, %56 ]
  %.07.i = phi ptr [ %63, %.lr.ph.i ], [ %60, %56 ]
  tail call void %62(ptr noundef nonnull %2) #14
  %63 = getelementptr inbounds nuw i8, ptr %.07.i, i64 8
  %64 = load ptr, ptr %63, align 8, !tbaa !36
  %.not.i = icmp eq ptr %64, null
  br i1 %.not.i, label %pmix_obj_run_destructors.exit, label %.lr.ph.i, !llvm.loop !58

pmix_obj_run_destructors.exit:                    ; preds = %.lr.ph.i, %56
  %65 = getelementptr inbounds nuw i8, ptr %2, i64 96
  %66 = load ptr, ptr %65, align 8, !tbaa !59
  %.not = icmp eq ptr %66, null
  br i1 %.not, label %69, label %67

67:                                               ; preds = %pmix_obj_run_destructors.exit
  %68 = getelementptr inbounds nuw i8, ptr %2, i64 56
  tail call void %66(ptr noundef nonnull %68, ptr noundef nonnull %2) #14
  br label %70

69:                                               ; preds = %pmix_obj_run_destructors.exit
  tail call void @free(ptr noundef nonnull %2) #14
  br label %70

70:                                               ; preds = %67, %69, %pmix_obj_update.exit
  ret void
}